; Function Attrs: mustprogress uwtable
define internal void @"_ZN4absl12lts_2023080222internal_any_invocable12LocalInvokerILb0EvRZN9grpc_core12_GLOBAL__N_111XdsResolver22ClusterSelectionFilter15MakeCallPromiseENS3_8CallArgsESt8functionIFNS3_12ArenaPromiseISt10unique_ptrI19grpc_metadata_batchNS3_5Arena13PooledDeleterEEEES7_EEE3$_0JEEET0_PNS1_15TypeErasedStateEDpNS1_18ForwardedParameterIT2_E4typeE"(ptr nocapture noundef %state) #3 personality ptr @__gxx_personality_v0 {
entry:
  %0 = load ptr, ptr %state, align 8
  store ptr null, ptr %state, align 8
  %cmp.not.i.i.i.i.i.i = icmp eq ptr %0, null
  br i1 %cmp.not.i.i.i.i.i.i, label %"_ZN4absl12lts_2023080222internal_any_invocable7InvokeRIvRZN9grpc_core12_GLOBAL__N_111XdsResolver22ClusterSelectionFilter15MakeCallPromiseENS3_8CallArgsESt8functionIFNS3_12ArenaPromiseISt10unique_ptrI19grpc_metadata_batchNS3_5Arena13PooledDeleterEEEES7_EEE3$_0JEvEEvOT0_DpOT1_.exit", label %if.then.i.i.i.i.i.i

if.then.i.i.i.i.i.i:                              ; preds = %entry
  %refs_.i.i.i.i.i.i.i = getelementptr inbounds i8, ptr %0, i64 8
  %1 = atomicrmw add ptr %refs_.i.i.i.i.i.i.i, i64 -4294967295 acq_rel, align 8
  %shr.i.mask.i.i.i.i.i.i.i = and i64 %1, -4294967296
  %cmp.i.i.i.i.i.i.i = icmp eq i64 %shr.i.mask.i.i.i.i.i.i.i, 4294967296
  br i1 %cmp.i.i.i.i.i.i.i, label %if.then.i.i.i.i.i.i.i, label %if.end.i.i.i.i.i.i.i

if.then.i.i.i.i.i.i.i:                            ; preds = %if.then.i.i.i.i.i.i
  %vtable.i.i.i.i.i.i.i = load ptr, ptr %0, align 8
  %2 = load ptr, ptr %vtable.i.i.i.i.i.i.i, align 8
  tail call void %2(ptr noundef nonnull align 8 dereferenceable(8) %0)
  br label %if.end.i.i.i.i.i.i.i

if.end.i.i.i.i.i.i.i:                             ; preds = %if.then.i.i.i.i.i.i.i, %if.then.i.i.i.i.i.i
  %3 = atomicrmw sub ptr %refs_.i.i.i.i.i.i.i, i64 1 acq_rel, align 8
  %cmp.not.i.i.i.i.i.i.i.i = icmp eq i64 %3, 1
  br i1 %cmp.not.i.i.i.i.i.i.i.i, label %delete.notnull.i.i.i.i.i.i.i.i, label %"_ZN4absl12lts_2023080222internal_any_invocable7InvokeRIvRZN9grpc_core12_GLOBAL__N_111XdsResolver22ClusterSelectionFilter15MakeCallPromiseENS3_8CallArgsESt8functionIFNS3_12ArenaPromiseISt10unique_ptrI19grpc_metadata_batchNS3_5Arena13PooledDeleterEEEES7_EEE3$_0JEvEEvOT0_DpOT1_.exit"

delete.notnull.i.i.i.i.i.i.i.i:                   ; preds = %if.end.i.i.i.i.i.i.i
  %vtable.i.i.i.i.i.i.i.i = load ptr, ptr %0, align 8
  %vfn.i.i.i.i.i.i.i.i = getelementptr inbounds i8, ptr %vtable.i.i.i.i.i.i.i.i, i64 16
  %4 = load ptr, ptr %vfn.i.i.i.i.i.i.i.i, align 8
  tail call void %4(ptr noundef nonnull align 8 dereferenceable(56) %0) #28
  br label %"_ZN4absl12lts_2023080222internal_any_invocable7InvokeRIvRZN9grpc_core12_GLOBAL__N_111XdsResolver22ClusterSelectionFilter15MakeCallPromiseENS3_8CallArgsESt8functionIFNS3_12ArenaPromiseISt10unique_ptrI19grpc_metadata_batchNS3_5Arena13PooledDeleterEEEES7_EEE3$_0JEvEEvOT0_DpOT1_.exit"

"_ZN4absl12lts_2023080222internal_any_invocable7InvokeRIvRZN9grpc_core12_GLOBAL__N_111XdsResolver22ClusterSelectionFilter15MakeCallPromiseENS3_8CallArgsESt8functionIFNS3_12ArenaPromiseISt10unique_ptrI19grpc_metadata_batchNS3_5Arena13PooledDeleterEEEES7_EEE3$_0JEvEEvOT0_DpOT1_.exit": ; preds = %entry, %if.end.i.i.i.i.i.i.i, %delete.notnull.i.i.i.i.i.i.i.i
  ret void
}